target datalayout = "e-m:e-p270:32:32-p271:32:32-p272:64:64-i64:64-i128:128-f80:128-n8:16:32:64-S128"
target triple = "x86_64-pc-linux-gnu"

@.str.171 = private unnamed_addr constant [33 x i8] c"Failed to query image length: %s\00", align 1
@.str.172 = private unnamed_addr constant [36 x i8] c"Failed to get allocation status: %s\00", align 1
@.str.173 = private unnamed_addr constant [24 x i8] c"Unexpected end of image\00", align 1
@.str.174 = private unnamed_addr constant [14 x i8] c"    allocated\00", align 1
@.str.175 = private unnamed_addr constant [14 x i8] c"not allocated\00", align 1
@.str.176 = private unnamed_addr constant [42 x i8] c"%s (0x%lx) bytes %s at offset %s (0x%lx)\0A\00", align 1

; Function Attrs: nounwind sspstrong uwtable
define internal i32 @map_is_allocated(ptr noundef %0, i64 noundef %1, i64 noundef %2, ptr noundef %3) #0 {
  %5 = alloca i32, align 4
  %6 = alloca ptr, align 8
  %7 = alloca i64, align 8
  %8 = alloca i64, align 8
  %9 = alloca ptr, align 8
  %10 = alloca i64, align 8
  %11 = alloca i32, align 4
  %12 = alloca i32, align 4
  %13 = alloca i32, align 4
  store ptr %0, ptr %6, align 8
  store i64 %1, ptr %7, align 8
  store i64 %2, ptr %8, align 8
  store ptr %3, ptr %9, align 8
  call void @llvm.lifetime.start.p0(i64 8, ptr %10) #18
  store i64 0, ptr %10, align 8, !annotation !4
  call void @llvm.lifetime.start.p0(i64 4, ptr %11) #18
  store i32 0, ptr %11, align 4, !annotation !4
  call void @llvm.lifetime.start.p0(i64 4, ptr %12) #18
  store i32 0, ptr %12, align 4, !annotation !4
  %14 = load ptr, ptr %6, align 8
  %15 = load i64, ptr %7, align 8
  %16 = load i64, ptr %8, align 8
  %17 = call i32 @bdrv_is_allocated(ptr noundef %14, i64 noundef %15, i64 noundef %16, ptr noundef %10)
  store i32 %17, ptr %11, align 4
  %18 = load i32, ptr %11, align 4
  %19 = icmp slt i32 %18, 0
  br i1 %19, label %20, label %22

20:                                               ; preds = %4
  %21 = load i32, ptr %11, align 4
  store i32 %21, ptr %5, align 4
  store i32 1, ptr %13, align 4
  br label %61

22:                                               ; preds = %4
  %23 = load i32, ptr %11, align 4
  store i32 %23, ptr %12, align 4
  %24 = load i64, ptr %10, align 8
  %25 = load ptr, ptr %9, align 8
  store i64 %24, ptr %25, align 8
  br label %26

26:                                               ; preds = %58, %22
  %27 = load i64, ptr %8, align 8
  %28 = icmp sgt i64 %27, 0
  br i1 %28, label %29, label %33

29:                                               ; preds = %26
  %30 = load i32, ptr %11, align 4
  %31 = load i32, ptr %12, align 4
  %32 = icmp eq i32 %30, %31
  br label %33

33:                                               ; preds = %29, %26
  %34 = phi i1 [ false, %26 ], [ %32, %29 ]
  br i1 %34, label %35, label %59

35:                                               ; preds = %33
  %36 = load i64, ptr %10, align 8
  %37 = load i64, ptr %7, align 8
  %38 = add i64 %37, %36
  store i64 %38, ptr %7, align 8
  %39 = load i64, ptr %10, align 8
  %40 = load i64, ptr %8, align 8
  %41 = sub i64 %40, %39
  store i64 %41, ptr %8, align 8
  %42 = load ptr, ptr %6, align 8
  %43 = load i64, ptr %7, align 8
  %44 = load i64, ptr %8, align 8
  %45 = call i32 @bdrv_is_allocated(ptr noundef %42, i64 noundef %43, i64 noundef %44, ptr noundef %10)
  store i32 %45, ptr %11, align 4
  %46 = load i32, ptr %11, align 4
  %47 = load i32, ptr %12, align 4
  %48 = icmp eq i32 %46, %47
  br i1 %48, label %49, label %57

49:                                               ; preds = %35
  %50 = load i64, ptr %10, align 8
  %51 = icmp ne i64 %50, 0
  br i1 %51, label %52, label %57

52:                                               ; preds = %49
  %53 = load i64, ptr %10, align 8
  %54 = load ptr, ptr %9, align 8
  %55 = load i64, ptr %54, align 8
  %56 = add i64 %55, %53
  store i64 %56, ptr %54, align 8
  br label %58

57:                                               ; preds = %49, %35
  br label %59

58:                                               ; preds = %52
  br label %26, !llvm.loop !32

59:                                               ; preds = %57, %33
  %60 = load i32, ptr %12, align 4
  store i32 %60, ptr %5, align 4
  store i32 1, ptr %13, align 4
  br label %61

61:                                               ; preds = %59, %20
  call void @llvm.lifetime.end.p0(i64 4, ptr %12) #18
  call void @llvm.lifetime.end.p0(i64 4, ptr %11) #18
  call void @llvm.lifetime.end.p0(i64 8, ptr %10) #18
  %62 = load i32, ptr %5, align 4
  ret i32 %62
}

; Function Attrs: nounwind sspstrong uwtable
define internal i32 @map_f(ptr noundef %0, i32 noundef %1, ptr noundef %2) #0 {
  %4 = alloca i32, align 4
  %5 = alloca ptr, align 8
  %6 = alloca i32, align 4
  %7 = alloca ptr, align 8
  %8 = alloca i64, align 8
  %9 = alloca i64, align 8
  %10 = alloca [64 x i8], align 16
  %11 = alloca [64 x i8], align 16
  %12 = alloca i64, align 8
  %13 = alloca i32, align 4
  %14 = alloca ptr, align 8
  %15 = alloca i32, align 4
  store ptr %0, ptr %5, align 8
  store i32 %1, ptr %6, align 4
  store ptr %2, ptr %7, align 8
  call void @llvm.lifetime.start.p0(i64 8, ptr %8) #18
  store i64 0, ptr %8, align 8, !annotation !4
  call void @llvm.lifetime.start.p0(i64 8, ptr %9) #18
  store i64 0, ptr %9, align 8, !annotation !4
  call void @llvm.lifetime.start.p0(i64 64, ptr %10) #18
  call void @llvm.memset.p0.i64(ptr align 16 %10, i8 0, i64 64, i1 false), !annotation !4
  call void @llvm.lifetime.start.p0(i64 64, ptr %11) #18
  call void @llvm.memset.p0.i64(ptr align 16 %11, i8 0, i64 64, i1 false), !annotation !4
  call void @llvm.lifetime.start.p0(i64 8, ptr %12) #18
  store i64 0, ptr %12, align 8, !annotation !4
  call void @llvm.lifetime.start.p0(i64 4, ptr %13) #18
  store i32 0, ptr %13, align 4, !annotation !4
  call void @llvm.lifetime.start.p0(i64 8, ptr %14) #18
  store ptr null, ptr %14, align 8, !annotation !4
  store i64 0, ptr %8, align 8
  %16 = load ptr, ptr %5, align 8
  %17 = call i64 @blk_getlength(ptr noundef %16)
  store i64 %17, ptr %9, align 8
  %18 = load i64, ptr %9, align 8
  %19 = icmp slt i64 %18, 0
  br i1 %19, label %20, label %27

20:                                               ; preds = %3
  %21 = load i64, ptr %9, align 8
  %22 = sub i64 0, %21
  %23 = trunc i64 %22 to i32
  %24 = call ptr @strerror(i32 noundef %23) #18
  call void (ptr, ...) @error_report(ptr noundef @.str.171, ptr noundef %24)
  %25 = load i64, ptr %9, align 8
  %26 = trunc i64 %25 to i32
  store i32 %26, ptr %4, align 4
  store i32 1, ptr %15, align 4
  br label %72

27:                                               ; preds = %3
  br label %28

28:                                               ; preds = %49, %27
  %29 = load i64, ptr %9, align 8
  %30 = icmp ne i64 %29, 0
  br i1 %30, label %31, label %71

31:                                               ; preds = %28
  %32 = load ptr, ptr %5, align 8
  %33 = call ptr @blk_bs(ptr noundef %32)
  %34 = load i64, ptr %8, align 8
  %35 = load i64, ptr %9, align 8
  %36 = call i32 @map_is_allocated(ptr noundef %33, i64 noundef %34, i64 noundef %35, ptr noundef %12)
  store i32 %36, ptr %13, align 4
  %37 = load i32, ptr %13, align 4
  %38 = icmp slt i32 %37, 0
  br i1 %38, label %39, label %44

39:                                               ; preds = %31
  %40 = load i32, ptr %13, align 4
  %41 = sub i32 0, %40
  %42 = call ptr @strerror(i32 noundef %41) #18
  call void (ptr, ...) @error_report(ptr noundef @.str.172, ptr noundef %42)
  %43 = load i32, ptr %13, align 4
  store i32 %43, ptr %4, align 4
  store i32 1, ptr %15, align 4
  br label %72

44:                                               ; preds = %31
  %45 = load i64, ptr %12, align 8
  %46 = icmp ne i64 %45, 0
  br i1 %46, label %48, label %47

47:                                               ; preds = %44
  call void (ptr, ...) @error_report(ptr noundef @.str.173)
  store i32 -5, ptr %4, align 4
  store i32 1, ptr %15, align 4
  br label %72

48:                                               ; preds = %44
  br label %49

49:                                               ; preds = %48
  %50 = load i32, ptr %13, align 4
  %51 = icmp ne i32 %50, 0
  %52 = select i1 %51, ptr @.str.174, ptr @.str.175
  store ptr %52, ptr %14, align 8
  %53 = load i64, ptr %12, align 8
  %54 = sitofp i64 %53 to double
  %55 = getelementptr inbounds [64 x i8], ptr %10, i64 0, i64 0
  call void @cvtstr(double noundef %54, ptr noundef %55, i64 noundef 64)
  %56 = load i64, ptr %8, align 8
  %57 = sitofp i64 %56 to double
  %58 = getelementptr inbounds [64 x i8], ptr %11, i64 0, i64 0
  call void @cvtstr(double noundef %57, ptr noundef %58, i64 noundef 64)
  %59 = getelementptr inbounds [64 x i8], ptr %10, i64 0, i64 0
  %60 = load i64, ptr %12, align 8
  %61 = load ptr, ptr %14, align 8
  %62 = getelementptr inbounds [64 x i8], ptr %11, i64 0, i64 0
  %63 = load i64, ptr %8, align 8
  %64 = call i32 (i32, ptr, ...) @__printf_chk(i32 noundef 1, ptr noundef @.str.176, ptr noundef %59, i64 noundef %60, ptr noundef %61, ptr noundef %62, i64 noundef %63)
  %65 = load i64, ptr %12, align 8
  %66 = load i64, ptr %8, align 8
  %67 = add i64 %66, %65
  store i64 %67, ptr %8, align 8
  %68 = load i64, ptr %12, align 8
  %69 = load i64, ptr %9, align 8
  %70 = sub i64 %69, %68
  store i64 %70, ptr %9, align 8
  br label %28, !llvm.loop !31

71:                                               ; preds = %28
  store i32 0, ptr %4, align 4
  store i32 1, ptr %15, align 4
  br label %72

72:                                               ; preds = %71, %47, %39, %20
  call void @llvm.lifetime.end.p0(i64 8, ptr %14) #18
  call void @llvm.lifetime.end.p0(i64 4, ptr %13) #18
  call void @llvm.lifetime.end.p0(i64 8, ptr %12) #18
  call void @llvm.lifetime.end.p0(i64 64, ptr %11) #18
  call void @llvm.lifetime.end.p0(i64 64, ptr %10) #18
  call void @llvm.lifetime.end.p0(i64 8, ptr %9) #18
  call void @llvm.lifetime.end.p0(i64 8, ptr %8) #18
  %73 = load i32, ptr %4, align 4
  ret i32 %73
}