; Function Attrs: nounwind sspstrong uwtable
define internal i32 @map_f(ptr noundef %0, i32 %1, ptr readnone captures(none) %2) #0 {
  %4 = alloca i64, align 8
  %5 = alloca [64 x i8], align 16
  %6 = alloca [64 x i8], align 16
  call void @llvm.lifetime.start.p0(i64 64, ptr nonnull %5) #26
  call void @llvm.lifetime.start.p0(i64 64, ptr nonnull %6) #26
  %7 = tail call i64 @blk_getlength(ptr noundef %0) #26
  %8 = icmp slt i64 %7, 0
  br i1 %8, label %9, label %.preheader

.preheader:                                       ; preds = %3
  %.not34 = icmp eq i64 %7, 0
  br i1 %.not34, label %.loopexit, label %.lr.ph.preheader

.lr.ph.preheader:                                 ; preds = %.preheader
  call void @llvm.memset.p0.i64(ptr noundef nonnull align 16 dereferenceable(64) %5, i8 0, i64 64, i1 false), !annotation !8
  call void @llvm.memset.p0.i64(ptr noundef nonnull align 16 dereferenceable(64) %6, i8 0, i64 64, i1 false), !annotation !8
  br label %.lr.ph

9:                                                ; preds = %3
  %10 = trunc i64 %7 to i32
  %11 = sub i32 0, %10
  %12 = tail call ptr @strerror(i32 noundef %11) #26
  tail call void (ptr, ...) @error_report(ptr noundef nonnull @.str.171, ptr noundef %12) #26
  br label %.loopexit

.lr.ph:                                           ; preds = %.lr.ph.preheader, %32
  %.036 = phi i64 [ %38, %32 ], [ %7, %.lr.ph.preheader ]
  %.01735 = phi i64 [ %37, %32 ], [ 0, %.lr.ph.preheader ]
  %13 = call ptr @blk_bs(ptr noundef %0) #26
  call void @llvm.lifetime.start.p0(i64 8, ptr nonnull %4) #26
  store i64 0, ptr %4, align 8, !annotation !8
  %14 = call i32 @bdrv_is_allocated(ptr noundef %13, i64 noundef %.01735, i64 noundef range(i64 1, 0) %.036, ptr noundef nonnull %4) #26
  %15 = icmp slt i32 %14, 0
  br i1 %15, label %map_is_allocated.exit.thread, label %18

map_is_allocated.exit.thread:                     ; preds = %.lr.ph
  call void @llvm.lifetime.end.p0(i64 8, ptr nonnull %4) #26
  %16 = sub i32 0, %14
  %17 = call ptr @strerror(i32 noundef %16) #26
  call void (ptr, ...) @error_report(ptr noundef nonnull @.str.172, ptr noundef %17) #26
  br label %.loopexit

18:                                               ; preds = %.lr.ph
  %19 = load i64, ptr %4, align 8
  %20 = icmp sgt i64 %.036, 0
  br i1 %20, label %.lr.ph.i, label %map_is_allocated.exit.thread30

.lr.ph.i:                                         ; preds = %18, %28
  %.1 = phi i64 [ %29, %28 ], [ %19, %18 ]
  %21 = phi i64 [ %26, %28 ], [ %19, %18 ]
  %.02127.i = phi i64 [ %23, %28 ], [ %.036, %18 ]
  %.02226.i = phi i64 [ %22, %28 ], [ %.01735, %18 ]
  %22 = add i64 %.02226.i, %21
  %23 = sub i64 %.02127.i, %21
  %24 = call i32 @bdrv_is_allocated(ptr noundef %13, i64 noundef %22, i64 noundef %23, ptr noundef nonnull %4) #26
  %25 = icmp eq i32 %24, %14
  %26 = load i64, ptr %4, align 8
  %27 = icmp ne i64 %26, 0
  %or.cond.i = select i1 %25, i1 %27, i1 false
  br i1 %or.cond.i, label %28, label %map_is_allocated.exit.thread30

28:                                               ; preds = %.lr.ph.i
  %29 = add i64 %26, %.1
  %30 = icmp sgt i64 %23, 0
  br i1 %30, label %.lr.ph.i, label %map_is_allocated.exit.thread30, !llvm.loop !30

map_is_allocated.exit.thread30:                   ; preds = %28, %.lr.ph.i, %18
  %.232 = phi i64 [ %19, %18 ], [ %29, %28 ], [ %.1, %.lr.ph.i ]
  call void @llvm.lifetime.end.p0(i64 8, ptr nonnull %4) #26
  %.not23 = icmp eq i64 %.232, 0
  br i1 %.not23, label %31, label %32

31:                                               ; preds = %map_is_allocated.exit.thread30
  call void (ptr, ...) @error_report(ptr noundef nonnull @.str.173) #26
  br label %.loopexit

32:                                               ; preds = %map_is_allocated.exit.thread30
  %.not24 = icmp eq i32 %14, 0
  %33 = select i1 %.not24, ptr @.str.175, ptr @.str.174
  %34 = sitofp i64 %.232 to double
  call fastcc void @cvtstr(double noundef %34, ptr noundef %5)
  %35 = sitofp i64 %.01735 to double
  call fastcc void @cvtstr(double noundef %35, ptr noundef %6)
  %36 = call i32 (i32, ptr, ...) @__printf_chk(i32 noundef 1, ptr noundef nonnull @.str.176, ptr noundef nonnull %5, i64 noundef %.232, ptr noundef nonnull %33, ptr noundef nonnull %6, i64 noundef %.01735) #26
  %37 = add i64 %.232, %.01735
  %38 = sub i64 %.036, %.232
  %.not = icmp eq i64 %38, 0
  br i1 %.not, label %.loopexit, label %.lr.ph, !llvm.loop !31

.loopexit:                                        ; preds = %32, %.preheader, %31, %map_is_allocated.exit.thread, %9
  %.018 = phi i32 [ %10, %9 ], [ %14, %map_is_allocated.exit.thread ], [ -5, %31 ], [ 0, %.preheader ], [ 0, %32 ]
  call void @llvm.lifetime.end.p0(i64 64, ptr nonnull %6) #26
  call void @llvm.lifetime.end.p0(i64 64, ptr nonnull %5) #26
  ret i32 %.018
}